target datalayout = "e-m:e-p270:32:32-p271:32:32-p272:64:64-i64:64-i128:128-f80:128-n8:16:32:64-S128"
target triple = "x86_64-pc-linux-gnu"

; Function Attrs: nounwind uwtable
define i32 @rijndaelSetupDecrypt(ptr noundef %0, ptr noundef %1, i32 noundef %2) #0 {
  %4 = alloca ptr, align 8
  %5 = alloca ptr, align 8
  %6 = alloca i32, align 4
  %7 = alloca i32, align 4
  %8 = alloca i32, align 4
  %9 = alloca i32, align 4
  %10 = alloca i32, align 4
  store ptr %0, ptr %4, align 8
  store ptr %1, ptr %5, align 8
  store i32 %2, ptr %6, align 4
  %11 = load ptr, ptr %4, align 8
  %12 = load ptr, ptr %5, align 8
  %13 = load i32, ptr %6, align 4
  %14 = call i32 @rijndaelSetupEncrypt(ptr noundef %11, ptr noundef %12, i32 noundef %13)
  store i32 %14, ptr %7, align 4
  store i32 0, ptr %8, align 4
  %15 = load i32, ptr %7, align 4
  %16 = mul nsw i32 4, %15
  store i32 %16, ptr %9, align 4
  br label %17

17:                                               ; preds = %110, %3
  %18 = load i32, ptr %8, align 4
  %19 = load i32, ptr %9, align 4
  %20 = icmp slt i32 %18, %19
  br i1 %20, label %21, label %115

21:                                               ; preds = %17
  %22 = load ptr, ptr %4, align 8
  %23 = load i32, ptr %8, align 4
  %24 = sext i32 %23 to i64
  %25 = getelementptr inbounds i32, ptr %22, i64 %24
  %26 = load i32, ptr %25, align 4
  store i32 %26, ptr %10, align 4
  %27 = load ptr, ptr %4, align 8
  %28 = load i32, ptr %9, align 4
  %29 = sext i32 %28 to i64
  %30 = getelementptr inbounds i32, ptr %27, i64 %29
  %31 = load i32, ptr %30, align 4
  %32 = load ptr, ptr %4, align 8
  %33 = load i32, ptr %8, align 4
  %34 = sext i32 %33 to i64
  %35 = getelementptr inbounds i32, ptr %32, i64 %34
  store i32 %31, ptr %35, align 4
  %36 = load i32, ptr %10, align 4
  %37 = load ptr, ptr %4, align 8
  %38 = load i32, ptr %9, align 4
  %39 = sext i32 %38 to i64
  %40 = getelementptr inbounds i32, ptr %37, i64 %39
  store i32 %36, ptr %40, align 4
  %41 = load ptr, ptr %4, align 8
  %42 = load i32, ptr %8, align 4
  %43 = add nsw i32 %42, 1
  %44 = sext i32 %43 to i64
  %45 = getelementptr inbounds i32, ptr %41, i64 %44
  %46 = load i32, ptr %45, align 4
  store i32 %46, ptr %10, align 4
  %47 = load ptr, ptr %4, align 8
  %48 = load i32, ptr %9, align 4
  %49 = add nsw i32 %48, 1
  %50 = sext i32 %49 to i64
  %51 = getelementptr inbounds i32, ptr %47, i64 %50
  %52 = load i32, ptr %51, align 4
  %53 = load ptr, ptr %4, align 8
  %54 = load i32, ptr %8, align 4
  %55 = add nsw i32 %54, 1
  %56 = sext i32 %55 to i64
  %57 = getelementptr inbounds i32, ptr %53, i64 %56
  store i32 %52, ptr %57, align 4
  %58 = load i32, ptr %10, align 4
  %59 = load ptr, ptr %4, align 8
  %60 = load i32, ptr %9, align 4
  %61 = add nsw i32 %60, 1
  %62 = sext i32 %61 to i64
  %63 = getelementptr inbounds i32, ptr %59, i64 %62
  store i32 %58, ptr %63, align 4
  %64 = load ptr, ptr %4, align 8
  %65 = load i32, ptr %8, align 4
  %66 = add nsw i32 %65, 2
  %67 = sext i32 %66 to i64
  %68 = getelementptr inbounds i32, ptr %64, i64 %67
  %69 = load i32, ptr %68, align 4
  store i32 %69, ptr %10, align 4
  %70 = load ptr, ptr %4, align 8
  %71 = load i32, ptr %9, align 4
  %72 = add nsw i32 %71, 2
  %73 = sext i32 %72 to i64
  %74 = getelementptr inbounds i32, ptr %70, i64 %73
  %75 = load i32, ptr %74, align 4
  %76 = load ptr, ptr %4, align 8
  %77 = load i32, ptr %8, align 4
  %78 = add nsw i32 %77, 2
  %79 = sext i32 %78 to i64
  %80 = getelementptr inbounds i32, ptr %76, i64 %79
  store i32 %75, ptr %80, align 4
  %81 = load i32, ptr %10, align 4
  %82 = load ptr, ptr %4, align 8
  %83 = load i32, ptr %9, align 4
  %84 = add nsw i32 %83, 2
  %85 = sext i32 %84 to i64
  %86 = getelementptr inbounds i32, ptr %82, i64 %85
  store i32 %81, ptr %86, align 4
  %87 = load ptr, ptr %4, align 8
  %88 = load i32, ptr %8, align 4
  %89 = add nsw i32 %88, 3
  %90 = sext i32 %89 to i64
  %91 = getelementptr inbounds i32, ptr %87, i64 %90
  %92 = load i32, ptr %91, align 4
  store i32 %92, ptr %10, align 4
  %93 = load ptr, ptr %4, align 8
  %94 = load i32, ptr %9, align 4
  %95 = add nsw i32 %94, 3
  %96 = sext i32 %95 to i64
  %97 = getelementptr inbounds i32, ptr %93, i64 %96
  %98 = load i32, ptr %97, align 4
  %99 = load ptr, ptr %4, align 8
  %100 = load i32, ptr %8, align 4
  %101 = add nsw i32 %100, 3
  %102 = sext i32 %101 to i64
  %103 = getelementptr inbounds i32, ptr %99, i64 %102
  store i32 %98, ptr %103, align 4
  %104 = load i32, ptr %10, align 4
  %105 = load ptr, ptr %4, align 8
  %106 = load i32, ptr %9, align 4
  %107 = add nsw i32 %106, 3
  %108 = sext i32 %107 to i64
  %109 = getelementptr inbounds i32, ptr %105, i64 %108
  store i32 %104, ptr %109, align 4
  br label %110

110:                                              ; preds = %21
  %111 = load i32, ptr %8, align 4
  %112 = add nsw i32 %111, 4
  store i32 %112, ptr %8, align 4
  %113 = load i32, ptr %9, align 4
  %114 = sub nsw i32 %113, 4
  store i32 %114, ptr %9, align 4
  br label %17

115:                                              ; preds = %17
  store i32 1, ptr %8, align 4
  br label %116

116:                                              ; preds = %327, %115
  %117 = load i32, ptr %8, align 4
  %118 = load i32, ptr %7, align 4
  %119 = icmp slt i32 %117, %118
  br i1 %119, label %120, label %330

120:                                              ; preds = %116
  %121 = load ptr, ptr %4, align 8
  %122 = getelementptr inbounds i32, ptr %121, i64 4
  store ptr %122, ptr %4, align 8
  %123 = load ptr, ptr %4, align 8
  %124 = getelementptr inbounds i32, ptr %123, i64 0
  %125 = load i32, ptr %124, align 4
  %126 = lshr i32 %125, 24
  %127 = zext i32 %126 to i64
  %128 = getelementptr inbounds [256 x i32], ptr @Te4, i64 0, i64 %127
  %129 = load i32, ptr %128, align 4
  %130 = and i32 %129, 255
  %131 = zext i32 %130 to i64
  %132 = getelementptr inbounds [256 x i32], ptr @Td0, i64 0, i64 %131
  %133 = load i32, ptr %132, align 4
  %134 = load ptr, ptr %4, align 8
  %135 = getelementptr inbounds i32, ptr %134, i64 0
  %136 = load i32, ptr %135, align 4
  %137 = lshr i32 %136, 16
  %138 = and i32 %137, 255
  %139 = zext i32 %138 to i64
  %140 = getelementptr inbounds [256 x i32], ptr @Te4, i64 0, i64 %139
  %141 = load i32, ptr %140, align 4
  %142 = and i32 %141, 255
  %143 = zext i32 %142 to i64
  %144 = getelementptr inbounds [256 x i32], ptr @Td1, i64 0, i64 %143
  %145 = load i32, ptr %144, align 4
  %146 = xor i32 %133, %145
  %147 = load ptr, ptr %4, align 8
  %148 = getelementptr inbounds i32, ptr %147, i64 0
  %149 = load i32, ptr %148, align 4
  %150 = lshr i32 %149, 8
  %151 = and i32 %150, 255
  %152 = zext i32 %151 to i64
  %153 = getelementptr inbounds [256 x i32], ptr @Te4, i64 0, i64 %152
  %154 = load i32, ptr %153, align 4
  %155 = and i32 %154, 255
  %156 = zext i32 %155 to i64
  %157 = getelementptr inbounds [256 x i32], ptr @Td2, i64 0, i64 %156
  %158 = load i32, ptr %157, align 4
  %159 = xor i32 %146, %158
  %160 = load ptr, ptr %4, align 8
  %161 = getelementptr inbounds i32, ptr %160, i64 0
  %162 = load i32, ptr %161, align 4
  %163 = and i32 %162, 255
  %164 = zext i32 %163 to i64
  %165 = getelementptr inbounds [256 x i32], ptr @Te4, i64 0, i64 %164
  %166 = load i32, ptr %165, align 4
  %167 = and i32 %166, 255
  %168 = zext i32 %167 to i64
  %169 = getelementptr inbounds [256 x i32], ptr @Td3, i64 0, i64 %168
  %170 = load i32, ptr %169, align 4
  %171 = xor i32 %159, %170
  %172 = load ptr, ptr %4, align 8
  %173 = getelementptr inbounds i32, ptr %172, i64 0
  store i32 %171, ptr %173, align 4
  %174 = load ptr, ptr %4, align 8
  %175 = getelementptr inbounds i32, ptr %174, i64 1
  %176 = load i32, ptr %175, align 4
  %177 = lshr i32 %176, 24
  %178 = zext i32 %177 to i64
  %179 = getelementptr inbounds [256 x i32], ptr @Te4, i64 0, i64 %178
  %180 = load i32, ptr %179, align 4
  %181 = and i32 %180, 255
  %182 = zext i32 %181 to i64
  %183 = getelementptr inbounds [256 x i32], ptr @Td0, i64 0, i64 %182
  %184 = load i32, ptr %183, align 4
  %185 = load ptr, ptr %4, align 8
  %186 = getelementptr inbounds i32, ptr %185, i64 1
  %187 = load i32, ptr %186, align 4
  %188 = lshr i32 %187, 16
  %189 = and i32 %188, 255
  %190 = zext i32 %189 to i64
  %191 = getelementptr inbounds [256 x i32], ptr @Te4, i64 0, i64 %190
  %192 = load i32, ptr %191, align 4
  %193 = and i32 %192, 255
  %194 = zext i32 %193 to i64
  %195 = getelementptr inbounds [256 x i32], ptr @Td1, i64 0, i64 %194
  %196 = load i32, ptr %195, align 4
  %197 = xor i32 %184, %196
  %198 = load ptr, ptr %4, align 8
  %199 = getelementptr inbounds i32, ptr %198, i64 1
  %200 = load i32, ptr %199, align 4
  %201 = lshr i32 %200, 8
  %202 = and i32 %201, 255
  %203 = zext i32 %202 to i64
  %204 = getelementptr inbounds [256 x i32], ptr @Te4, i64 0, i64 %203
  %205 = load i32, ptr %204, align 4
  %206 = and i32 %205, 255
  %207 = zext i32 %206 to i64
  %208 = getelementptr inbounds [256 x i32], ptr @Td2, i64 0, i64 %207
  %209 = load i32, ptr %208, align 4
  %210 = xor i32 %197, %209
  %211 = load ptr, ptr %4, align 8
  %212 = getelementptr inbounds i32, ptr %211, i64 1
  %213 = load i32, ptr %212, align 4
  %214 = and i32 %213, 255
  %215 = zext i32 %214 to i64
  %216 = getelementptr inbounds [256 x i32], ptr @Te4, i64 0, i64 %215
  %217 = load i32, ptr %216, align 4
  %218 = and i32 %217, 255
  %219 = zext i32 %218 to i64
  %220 = getelementptr inbounds [256 x i32], ptr @Td3, i64 0, i64 %219
  %221 = load i32, ptr %220, align 4
  %222 = xor i32 %210, %221
  %223 = load ptr, ptr %4, align 8
  %224 = getelementptr inbounds i32, ptr %223, i64 1
  store i32 %222, ptr %224, align 4
  %225 = load ptr, ptr %4, align 8
  %226 = getelementptr inbounds i32, ptr %225, i64 2
  %227 = load i32, ptr %226, align 4
  %228 = lshr i32 %227, 24
  %229 = zext i32 %228 to i64
  %230 = getelementptr inbounds [256 x i32], ptr @Te4, i64 0, i64 %229
  %231 = load i32, ptr %230, align 4
  %232 = and i32 %231, 255
  %233 = zext i32 %232 to i64
  %234 = getelementptr inbounds [256 x i32], ptr @Td0, i64 0, i64 %233
  %235 = load i32, ptr %234, align 4
  %236 = load ptr, ptr %4, align 8
  %237 = getelementptr inbounds i32, ptr %236, i64 2
  %238 = load i32, ptr %237, align 4
  %239 = lshr i32 %238, 16
  %240 = and i32 %239, 255
  %241 = zext i32 %240 to i64
  %242 = getelementptr inbounds [256 x i32], ptr @Te4, i64 0, i64 %241
  %243 = load i32, ptr %242, align 4
  %244 = and i32 %243, 255
  %245 = zext i32 %244 to i64
  %246 = getelementptr inbounds [256 x i32], ptr @Td1, i64 0, i64 %245
  %247 = load i32, ptr %246, align 4
  %248 = xor i32 %235, %247
  %249 = load ptr, ptr %4, align 8
  %250 = getelementptr inbounds i32, ptr %249, i64 2
  %251 = load i32, ptr %250, align 4
  %252 = lshr i32 %251, 8
  %253 = and i32 %252, 255
  %254 = zext i32 %253 to i64
  %255 = getelementptr inbounds [256 x i32], ptr @Te4, i64 0, i64 %254
  %256 = load i32, ptr %255, align 4
  %257 = and i32 %256, 255
  %258 = zext i32 %257 to i64
  %259 = getelementptr inbounds [256 x i32], ptr @Td2, i64 0, i64 %258
  %260 = load i32, ptr %259, align 4
  %261 = xor i32 %248, %260
  %262 = load ptr, ptr %4, align 8
  %263 = getelementptr inbounds i32, ptr %262, i64 2
  %264 = load i32, ptr %263, align 4
  %265 = and i32 %264, 255
  %266 = zext i32 %265 to i64
  %267 = getelementptr inbounds [256 x i32], ptr @Te4, i64 0, i64 %266
  %268 = load i32, ptr %267, align 4
  %269 = and i32 %268, 255
  %270 = zext i32 %269 to i64
  %271 = getelementptr inbounds [256 x i32], ptr @Td3, i64 0, i64 %270
  %272 = load i32, ptr %271, align 4
  %273 = xor i32 %261, %272
  %274 = load ptr, ptr %4, align 8
  %275 = getelementptr inbounds i32, ptr %274, i64 2
  store i32 %273, ptr %275, align 4
  %276 = load ptr, ptr %4, align 8
  %277 = getelementptr inbounds i32, ptr %276, i64 3
  %278 = load i32, ptr %277, align 4
  %279 = lshr i32 %278, 24
  %280 = zext i32 %279 to i64
  %281 = getelementptr inbounds [256 x i32], ptr @Te4, i64 0, i64 %280
  %282 = load i32, ptr %281, align 4
  %283 = and i32 %282, 255
  %284 = zext i32 %283 to i64
  %285 = getelementptr inbounds [256 x i32], ptr @Td0, i64 0, i64 %284
  %286 = load i32, ptr %285, align 4
  %287 = load ptr, ptr %4, align 8
  %288 = getelementptr inbounds i32, ptr %287, i64 3
  %289 = load i32, ptr %288, align 4
  %290 = lshr i32 %289, 16
  %291 = and i32 %290, 255
  %292 = zext i32 %291 to i64
  %293 = getelementptr inbounds [256 x i32], ptr @Te4, i64 0, i64 %292
  %294 = load i32, ptr %293, align 4
  %295 = and i32 %294, 255
  %296 = zext i32 %295 to i64
  %297 = getelementptr inbounds [256 x i32], ptr @Td1, i64 0, i64 %296
  %298 = load i32, ptr %297, align 4
  %299 = xor i32 %286, %298
  %300 = load ptr, ptr %4, align 8
  %301 = getelementptr inbounds i32, ptr %300, i64 3
  %302 = load i32, ptr %301, align 4
  %303 = lshr i32 %302, 8
  %304 = and i32 %303, 255
  %305 = zext i32 %304 to i64
  %306 = getelementptr inbounds [256 x i32], ptr @Te4, i64 0, i64 %305
  %307 = load i32, ptr %306, align 4
  %308 = and i32 %307, 255
  %309 = zext i32 %308 to i64
  %310 = getelementptr inbounds [256 x i32], ptr @Td2, i64 0, i64 %309
  %311 = load i32, ptr %310, align 4
  %312 = xor i32 %299, %311
  %313 = load ptr, ptr %4, align 8
  %314 = getelementptr inbounds i32, ptr %313, i64 3
  %315 = load i32, ptr %314, align 4
  %316 = and i32 %315, 255
  %317 = zext i32 %316 to i64
  %318 = getelementptr inbounds [256 x i32], ptr @Te4, i64 0, i64 %317
  %319 = load i32, ptr %318, align 4
  %320 = and i32 %319, 255
  %321 = zext i32 %320 to i64
  %322 = getelementptr inbounds [256 x i32], ptr @Td3, i64 0, i64 %321
  %323 = load i32, ptr %322, align 4
  %324 = xor i32 %312, %323
  %325 = load ptr, ptr %4, align 8
  %326 = getelementptr inbounds i32, ptr %325, i64 3
  store i32 %324, ptr %326, align 4
  br label %327

327:                                              ; preds = %120
  %328 = load i32, ptr %8, align 4
  %329 = add nsw i32 %328, 1
  store i32 %329, ptr %8, align 4
  br label %116

330:                                              ; preds = %116
  %331 = load i32, ptr %7, align 4
  ret i32 %331
}