; Function Attrs: nofree norecurse nosync nounwind memory(readwrite, inaccessiblemem: none) uwtable
define noundef i32 @rijndaelSetupDecrypt(ptr nocapture noundef %0, ptr nocapture noundef readonly %1, i32 noundef %2) local_unnamed_addr #0 {
  %4 = tail call i32 @rijndaelSetupEncrypt(ptr noundef %0, ptr noundef %1, i32 noundef %2), !range !4
  %.not = icmp eq i32 %4, 0
  br i1 %.not, label %._crit_edge, label %.lr.ph.preheader

.lr.ph.preheader:                                 ; preds = %3
  %5 = shl nuw nsw i32 %4, 2
  %6 = zext nneg i32 %5 to i64
  br label %.lr.ph

.preheader:                                       ; preds = %.lr.ph
  %.not81 = icmp eq i32 %4, 1
  br i1 %.not81, label %._crit_edge, label %.lr.ph75

.lr.ph:                                           ; preds = %.lr.ph.preheader, %.lr.ph
  %indvars.iv76 = phi i64 [ 0, %.lr.ph.preheader ], [ %indvars.iv.next77, %.lr.ph ]
  %indvars.iv = phi i64 [ %6, %.lr.ph.preheader ], [ %indvars.iv.next, %.lr.ph ]
  %7 = getelementptr inbounds i32, ptr %0, i64 %indvars.iv76
  %8 = load i32, ptr %7, align 4
  %9 = getelementptr inbounds i32, ptr %0, i64 %indvars.iv
  %10 = load i32, ptr %9, align 4
  store i32 %10, ptr %7, align 4
  store i32 %8, ptr %9, align 4
  %11 = or disjoint i64 %indvars.iv76, 1
  %12 = getelementptr inbounds i32, ptr %0, i64 %11
  %13 = load i32, ptr %12, align 4
  %14 = or disjoint i64 %indvars.iv, 1
  %15 = getelementptr inbounds i32, ptr %0, i64 %14
  %16 = load i32, ptr %15, align 4
  store i32 %16, ptr %12, align 4
  store i32 %13, ptr %15, align 4
  %17 = or disjoint i64 %indvars.iv76, 2
  %18 = getelementptr inbounds i32, ptr %0, i64 %17
  %19 = load i32, ptr %18, align 4
  %20 = or disjoint i64 %indvars.iv, 2
  %21 = getelementptr inbounds i32, ptr %0, i64 %20
  %22 = load i32, ptr %21, align 4
  store i32 %22, ptr %18, align 4
  store i32 %19, ptr %21, align 4
  %23 = or disjoint i64 %indvars.iv76, 3
  %24 = getelementptr inbounds i32, ptr %0, i64 %23
  %25 = load i32, ptr %24, align 4
  %26 = or disjoint i64 %indvars.iv, 3
  %27 = getelementptr inbounds i32, ptr %0, i64 %26
  %28 = load i32, ptr %27, align 4
  store i32 %28, ptr %24, align 4
  store i32 %25, ptr %27, align 4
  %indvars.iv.next77 = add nuw nsw i64 %indvars.iv76, 4
  %indvars.iv.next = add nsw i64 %indvars.iv, -4
  %29 = icmp slt i64 %indvars.iv.next77, %indvars.iv.next
  br i1 %29, label %.lr.ph, label %.preheader

.lr.ph75:                                         ; preds = %.preheader, %.lr.ph75
  %.074 = phi ptr [ %30, %.lr.ph75 ], [ %0, %.preheader ]
  %.173 = phi i32 [ %186, %.lr.ph75 ], [ 1, %.preheader ]
  %30 = getelementptr inbounds i8, ptr %.074, i64 16
  %31 = load i32, ptr %30, align 4
  %32 = lshr i32 %31, 24
  %33 = zext nneg i32 %32 to i64
  %34 = getelementptr inbounds [256 x i32], ptr @Te4, i64 0, i64 %33
  %35 = load i32, ptr %34, align 4
  %36 = and i32 %35, 255
  %37 = zext nneg i32 %36 to i64
  %38 = getelementptr inbounds [256 x i32], ptr @Td0, i64 0, i64 %37
  %39 = load i32, ptr %38, align 4
  %40 = lshr i32 %31, 16
  %41 = and i32 %40, 255
  %42 = zext nneg i32 %41 to i64
  %43 = getelementptr inbounds [256 x i32], ptr @Te4, i64 0, i64 %42
  %44 = load i32, ptr %43, align 4
  %45 = and i32 %44, 255
  %46 = zext nneg i32 %45 to i64
  %47 = getelementptr inbounds [256 x i32], ptr @Td1, i64 0, i64 %46
  %48 = load i32, ptr %47, align 4
  %49 = xor i32 %48, %39
  %50 = lshr i32 %31, 8
  %51 = and i32 %50, 255
  %52 = zext nneg i32 %51 to i64
  %53 = getelementptr inbounds [256 x i32], ptr @Te4, i64 0, i64 %52
  %54 = load i32, ptr %53, align 4
  %55 = and i32 %54, 255
  %56 = zext nneg i32 %55 to i64
  %57 = getelementptr inbounds [256 x i32], ptr @Td2, i64 0, i64 %56
  %58 = load i32, ptr %57, align 4
  %59 = xor i32 %49, %58
  %60 = and i32 %31, 255
  %61 = zext nneg i32 %60 to i64
  %62 = getelementptr inbounds [256 x i32], ptr @Te4, i64 0, i64 %61
  %63 = load i32, ptr %62, align 4
  %64 = and i32 %63, 255
  %65 = zext nneg i32 %64 to i64
  %66 = getelementptr inbounds [256 x i32], ptr @Td3, i64 0, i64 %65
  %67 = load i32, ptr %66, align 4
  %68 = xor i32 %59, %67
  store i32 %68, ptr %30, align 4
  %69 = getelementptr inbounds i8, ptr %.074, i64 20
  %70 = load i32, ptr %69, align 4
  %71 = lshr i32 %70, 24
  %72 = zext nneg i32 %71 to i64
  %73 = getelementptr inbounds [256 x i32], ptr @Te4, i64 0, i64 %72
  %74 = load i32, ptr %73, align 4
  %75 = and i32 %74, 255
  %76 = zext nneg i32 %75 to i64
  %77 = getelementptr inbounds [256 x i32], ptr @Td0, i64 0, i64 %76
  %78 = load i32, ptr %77, align 4
  %79 = lshr i32 %70, 16
  %80 = and i32 %79, 255
  %81 = zext nneg i32 %80 to i64
  %82 = getelementptr inbounds [256 x i32], ptr @Te4, i64 0, i64 %81
  %83 = load i32, ptr %82, align 4
  %84 = and i32 %83, 255
  %85 = zext nneg i32 %84 to i64
  %86 = getelementptr inbounds [256 x i32], ptr @Td1, i64 0, i64 %85
  %87 = load i32, ptr %86, align 4
  %88 = xor i32 %87, %78
  %89 = lshr i32 %70, 8
  %90 = and i32 %89, 255
  %91 = zext nneg i32 %90 to i64
  %92 = getelementptr inbounds [256 x i32], ptr @Te4, i64 0, i64 %91
  %93 = load i32, ptr %92, align 4
  %94 = and i32 %93, 255
  %95 = zext nneg i32 %94 to i64
  %96 = getelementptr inbounds [256 x i32], ptr @Td2, i64 0, i64 %95
  %97 = load i32, ptr %96, align 4
  %98 = xor i32 %88, %97
  %99 = and i32 %70, 255
  %100 = zext nneg i32 %99 to i64
  %101 = getelementptr inbounds [256 x i32], ptr @Te4, i64 0, i64 %100
  %102 = load i32, ptr %101, align 4
  %103 = and i32 %102, 255
  %104 = zext nneg i32 %103 to i64
  %105 = getelementptr inbounds [256 x i32], ptr @Td3, i64 0, i64 %104
  %106 = load i32, ptr %105, align 4
  %107 = xor i32 %98, %106
  store i32 %107, ptr %69, align 4
  %108 = getelementptr inbounds i8, ptr %.074, i64 24
  %109 = load i32, ptr %108, align 4
  %110 = lshr i32 %109, 24
  %111 = zext nneg i32 %110 to i64
  %112 = getelementptr inbounds [256 x i32], ptr @Te4, i64 0, i64 %111
  %113 = load i32, ptr %112, align 4
  %114 = and i32 %113, 255
  %115 = zext nneg i32 %114 to i64
  %116 = getelementptr inbounds [256 x i32], ptr @Td0, i64 0, i64 %115
  %117 = load i32, ptr %116, align 4
  %118 = lshr i32 %109, 16
  %119 = and i32 %118, 255
  %120 = zext nneg i32 %119 to i64
  %121 = getelementptr inbounds [256 x i32], ptr @Te4, i64 0, i64 %120
  %122 = load i32, ptr %121, align 4
  %123 = and i32 %122, 255
  %124 = zext nneg i32 %123 to i64
  %125 = getelementptr inbounds [256 x i32], ptr @Td1, i64 0, i64 %124
  %126 = load i32, ptr %125, align 4
  %127 = xor i32 %126, %117
  %128 = lshr i32 %109, 8
  %129 = and i32 %128, 255
  %130 = zext nneg i32 %129 to i64
  %131 = getelementptr inbounds [256 x i32], ptr @Te4, i64 0, i64 %130
  %132 = load i32, ptr %131, align 4
  %133 = and i32 %132, 255
  %134 = zext nneg i32 %133 to i64
  %135 = getelementptr inbounds [256 x i32], ptr @Td2, i64 0, i64 %134
  %136 = load i32, ptr %135, align 4
  %137 = xor i32 %127, %136
  %138 = and i32 %109, 255
  %139 = zext nneg i32 %138 to i64
  %140 = getelementptr inbounds [256 x i32], ptr @Te4, i64 0, i64 %139
  %141 = load i32, ptr %140, align 4
  %142 = and i32 %141, 255
  %143 = zext nneg i32 %142 to i64
  %144 = getelementptr inbounds [256 x i32], ptr @Td3, i64 0, i64 %143
  %145 = load i32, ptr %144, align 4
  %146 = xor i32 %137, %145
  store i32 %146, ptr %108, align 4
  %147 = getelementptr inbounds i8, ptr %.074, i64 28
  %148 = load i32, ptr %147, align 4
  %149 = lshr i32 %148, 24
  %150 = zext nneg i32 %149 to i64
  %151 = getelementptr inbounds [256 x i32], ptr @Te4, i64 0, i64 %150
  %152 = load i32, ptr %151, align 4
  %153 = and i32 %152, 255
  %154 = zext nneg i32 %153 to i64
  %155 = getelementptr inbounds [256 x i32], ptr @Td0, i64 0, i64 %154
  %156 = load i32, ptr %155, align 4
  %157 = lshr i32 %148, 16
  %158 = and i32 %157, 255
  %159 = zext nneg i32 %158 to i64
  %160 = getelementptr inbounds [256 x i32], ptr @Te4, i64 0, i64 %159
  %161 = load i32, ptr %160, align 4
  %162 = and i32 %161, 255
  %163 = zext nneg i32 %162 to i64
  %164 = getelementptr inbounds [256 x i32], ptr @Td1, i64 0, i64 %163
  %165 = load i32, ptr %164, align 4
  %166 = xor i32 %165, %156
  %167 = lshr i32 %148, 8
  %168 = and i32 %167, 255
  %169 = zext nneg i32 %168 to i64
  %170 = getelementptr inbounds [256 x i32], ptr @Te4, i64 0, i64 %169
  %171 = load i32, ptr %170, align 4
  %172 = and i32 %171, 255
  %173 = zext nneg i32 %172 to i64
  %174 = getelementptr inbounds [256 x i32], ptr @Td2, i64 0, i64 %173
  %175 = load i32, ptr %174, align 4
  %176 = xor i32 %166, %175
  %177 = and i32 %148, 255
  %178 = zext nneg i32 %177 to i64
  %179 = getelementptr inbounds [256 x i32], ptr @Te4, i64 0, i64 %178
  %180 = load i32, ptr %179, align 4
  %181 = and i32 %180, 255
  %182 = zext nneg i32 %181 to i64
  %183 = getelementptr inbounds [256 x i32], ptr @Td3, i64 0, i64 %182
  %184 = load i32, ptr %183, align 4
  %185 = xor i32 %176, %184
  store i32 %185, ptr %147, align 4
  %186 = add nuw nsw i32 %.173, 1
  %exitcond.not = icmp eq i32 %186, %4
  br i1 %exitcond.not, label %._crit_edge, label %.lr.ph75

._crit_edge:                                      ; preds = %.lr.ph75, %3, %.preheader
  ret i32 %4
}